; Function Attrs: mustprogress nounwind uwtable
define hidden void @_ZN14InitializeNode12set_completeEP8PhaseGVN(ptr noundef nonnull align 8 dereferenceable(73) %0, ptr noundef %1) local_unnamed_addr #1 align 2 {
  %3 = getelementptr inbounds i8, ptr %0, i64 68
  store i32 1, ptr %3, align 4
  %4 = getelementptr inbounds i8, ptr %1, i64 24
  %5 = load i8, ptr %4, align 8
  %6 = trunc i8 %5 to i1
  %.not4 = icmp ne ptr %1, null
  %.not.not = and i1 %.not4, %6
  br i1 %.not.not, label %7, label %8

7:                                                ; preds = %2
  tail call void @_ZN12PhaseIterGVN21add_users_to_worklistEP4Node(ptr noundef nonnull align 8 dereferenceable(2416) %1, ptr noundef nonnull %0) #13
  br label %8

8:                                                ; preds = %7, %2
  ret void
}